target datalayout = "e-m:e-p270:32:32-p271:32:32-p272:64:64-i64:64-i128:128-f80:128-n8:16:32:64-S128"
target triple = "x86_64-pc-linux-gnu"

%"struct.Luau::NotNull" = type { ptr }
%"struct.Luau::Symbol" = type { ptr, %"struct.Luau::AstName" }
%"struct.Luau::AstName" = type { ptr }
%"struct.Luau::DfgScope" = type { ptr, i32, [4 x i8], %"class.Luau::DenseHashMap.28", %"class.Luau::DenseHashMap.31" }
%"class.Luau::DenseHashMap.28" = type { %"class.Luau::detail::DenseHashTable.29" }
%"class.Luau::detail::DenseHashTable.29" = type <{ ptr, i64, i64, %"struct.Luau::Symbol", [8 x i8] }>
%"class.Luau::DenseHashMap.31" = type { %"class.Luau::detail::DenseHashTable.32" }
%"class.Luau::detail::DenseHashTable.32" = type <{ ptr, i64, i64, ptr, [8 x i8] }>
%"struct.std::pair.41" = type { ptr, %"class.std::unordered_map" }
%"class.std::unordered_map" = type { %"class.std::_Hashtable" }
%"class.std::_Hashtable" = type { ptr, i64, %"struct.std::__detail::_Hash_node_base", i64, %"struct.std::__detail::_Prime_rehash_policy", ptr }
%"struct.std::__detail::_Hash_node_base" = type { ptr }
%"struct.std::__detail::_Prime_rehash_policy" = type { float, i64 }

; Function Attrs: mustprogress nounwind uwtable
define linkonce_odr dso_local noundef nonnull align 8 dereferenceable(8) ptr @_ZN4Luau6detail16ItemInterfaceMapIPKNS_3DefESt13unordered_mapINSt7__cxx1112basic_stringIcSt11char_traitsIcESaIcEEES4_St4hashISB_ESt8equal_toISB_ESaISt4pairIKSB_S4_EEEE6getKeyERKSG_IS4_SK_E(ptr noundef nonnull align 8 dereferenceable(64) %0) #4 comdat align 2 {
  %2 = alloca ptr, align 8
  store ptr %0, ptr %2, align 8, !tbaa !121
  %3 = load ptr, ptr %2, align 8, !tbaa !121
  %4 = getelementptr inbounds nuw %"struct.std::pair.41", ptr %3, i32 0, i32 0
  ret ptr %4
}

; Function Attrs: mustprogress nounwind uwtable
define linkonce_odr dso_local noundef i64 @_ZNK4Luau16DenseHashPointerclEPKv(ptr noundef nonnull align 1 dereferenceable(1) %0, ptr noundef %1) #4 comdat align 2 {
  %3 = alloca ptr, align 8
  %4 = alloca ptr, align 8
  store ptr %0, ptr %3, align 8, !tbaa !836
  store ptr %1, ptr %4, align 8, !tbaa !274
  %5 = load ptr, ptr %4, align 8, !tbaa !274
  %6 = ptrtoint ptr %5 to i64
  %7 = lshr i64 %6, 4
  %8 = load ptr, ptr %4, align 8, !tbaa !274
  %9 = ptrtoint ptr %8 to i64
  %10 = lshr i64 %9, 9
  %11 = xor i64 %7, %10
  ret i64 %11
}

; Function Attrs: mustprogress nounwind uwtable
define linkonce_odr dso_local noundef zeroext i1 @_ZNKSt8equal_toIPKN4Luau3DefEEclERKS3_S6_(ptr noundef nonnull align 1 dereferenceable(1) %0, ptr noundef nonnull align 8 dereferenceable(8) %1, ptr noundef nonnull align 8 dereferenceable(8) %2) #4 comdat align 2 {
  %4 = alloca ptr, align 8
  %5 = alloca ptr, align 8
  %6 = alloca ptr, align 8
  store ptr %0, ptr %4, align 8, !tbaa !864
  store ptr %1, ptr %5, align 8, !tbaa !67
  store ptr %2, ptr %6, align 8, !tbaa !67
  %7 = load ptr, ptr %5, align 8, !tbaa !67
  %8 = load ptr, ptr %7, align 8, !tbaa !23
  %9 = load ptr, ptr %6, align 8, !tbaa !67
  %10 = load ptr, ptr %9, align 8, !tbaa !23
  %11 = icmp eq ptr %8, %10
  ret i1 %11
}

; Function Attrs: mustprogress uwtable
define linkonce_odr dso_local noundef ptr @_ZNK4Luau6detail14DenseHashTableIPKNS_3DefESt4pairIS4_St13unordered_mapINSt7__cxx1112basic_stringIcSt11char_traitsIcESaIcEEES4_St4hashISC_ESt8equal_toISC_ESaIS5_IKSC_S4_EEEES5_IKS4_SK_ENS0_16ItemInterfaceMapIS4_SK_EENS_16DenseHashPointerESF_IS4_EE4findERSM_(ptr noundef nonnull align 8 dereferenceable(34) %0, ptr noundef nonnull align 8 dereferenceable(8) %1) #2 comdat align 2 {
  %3 = alloca ptr, align 8
  %4 = alloca ptr, align 8
  %5 = alloca ptr, align 8
  %6 = alloca i64, align 8
  %7 = alloca i64, align 8
  %8 = alloca i64, align 8
  %9 = alloca i32, align 4
  %10 = alloca ptr, align 8
  store ptr %0, ptr %4, align 8, !tbaa !861
  store ptr %1, ptr %5, align 8, !tbaa !67
  %11 = load ptr, ptr %4, align 8
  %12 = getelementptr inbounds nuw %"class.Luau::detail::DenseHashTable.32", ptr %11, i32 0, i32 2
  %13 = load i64, ptr %12, align 8, !tbaa !862
  %14 = icmp eq i64 %13, 0
  br i1 %14, label %15, label %16

15:                                               ; preds = %2
  store ptr null, ptr %3, align 8
  br label %73

16:                                               ; preds = %2
  %17 = getelementptr inbounds i8, ptr %11, i64 33
  %18 = load ptr, ptr %5, align 8, !tbaa !67
  %19 = getelementptr inbounds nuw %"class.Luau::detail::DenseHashTable.32", ptr %11, i32 0, i32 3
  %20 = call noundef zeroext i1 @_ZNKSt8equal_toIPKN4Luau3DefEEclERKS3_S6_(ptr noundef nonnull align 1 dereferenceable(1) %17, ptr noundef nonnull align 8 dereferenceable(8) %18, ptr noundef nonnull align 8 dereferenceable(8) %19)
  br i1 %20, label %21, label %22

21:                                               ; preds = %16
  store ptr null, ptr %3, align 8
  br label %73

22:                                               ; preds = %16
  call void @llvm.lifetime.start.p0(i64 8, ptr %6) #17
  %23 = getelementptr inbounds nuw %"class.Luau::detail::DenseHashTable.32", ptr %11, i32 0, i32 1
  %24 = load i64, ptr %23, align 8, !tbaa !149
  %25 = sub i64 %24, 1
  store i64 %25, ptr %6, align 8, !tbaa !56
  call void @llvm.lifetime.start.p0(i64 8, ptr %7) #17
  %26 = getelementptr inbounds i8, ptr %11, i64 32
  %27 = load ptr, ptr %5, align 8, !tbaa !67
  %28 = load ptr, ptr %27, align 8, !tbaa !23
  %29 = call noundef i64 @_ZNK4Luau16DenseHashPointerclEPKv(ptr noundef nonnull align 1 dereferenceable(1) %26, ptr noundef %28)
  %30 = load i64, ptr %6, align 8, !tbaa !56
  %31 = and i64 %29, %30
  store i64 %31, ptr %7, align 8, !tbaa !56
  call void @llvm.lifetime.start.p0(i64 8, ptr %8) #17
  store i64 0, ptr %8, align 8, !tbaa !56
  br label %32

32:                                               ; preds = %66, %22
  %33 = load i64, ptr %8, align 8, !tbaa !56
  %34 = load i64, ptr %6, align 8, !tbaa !56
  %35 = icmp ule i64 %33, %34
  br i1 %35, label %37, label %36

36:                                               ; preds = %32
  store i32 2, ptr %9, align 4
  br label %69

37:                                               ; preds = %32
  call void @llvm.lifetime.start.p0(i64 8, ptr %10) #17
  %38 = getelementptr inbounds nuw %"class.Luau::detail::DenseHashTable.32", ptr %11, i32 0, i32 0
  %39 = load ptr, ptr %38, align 8, !tbaa !148
  %40 = load i64, ptr %7, align 8, !tbaa !56
  %41 = getelementptr inbounds nuw %"struct.std::pair.41", ptr %39, i64 %40
  store ptr %41, ptr %10, align 8, !tbaa !121
  %42 = getelementptr inbounds i8, ptr %11, i64 33
  %43 = load ptr, ptr %10, align 8, !tbaa !121
  %44 = call noundef nonnull align 8 dereferenceable(8) ptr @_ZN4Luau6detail16ItemInterfaceMapIPKNS_3DefESt13unordered_mapINSt7__cxx1112basic_stringIcSt11char_traitsIcESaIcEEES4_St4hashISB_ESt8equal_toISB_ESaISt4pairIKSB_S4_EEEE6getKeyERKSG_IS4_SK_E(ptr noundef nonnull align 8 dereferenceable(64) %43)
  %45 = load ptr, ptr %5, align 8, !tbaa !67
  %46 = call noundef zeroext i1 @_ZNKSt8equal_toIPKN4Luau3DefEEclERKS3_S6_(ptr noundef nonnull align 1 dereferenceable(1) %42, ptr noundef nonnull align 8 dereferenceable(8) %44, ptr noundef nonnull align 8 dereferenceable(8) %45)
  br i1 %46, label %47, label %49

47:                                               ; preds = %37
  %48 = load ptr, ptr %10, align 8, !tbaa !121
  store ptr %48, ptr %3, align 8
  store i32 1, ptr %9, align 4
  br label %63

49:                                               ; preds = %37
  %50 = getelementptr inbounds i8, ptr %11, i64 33
  %51 = load ptr, ptr %10, align 8, !tbaa !121
  %52 = call noundef nonnull align 8 dereferenceable(8) ptr @_ZN4Luau6detail16ItemInterfaceMapIPKNS_3DefESt13unordered_mapINSt7__cxx1112basic_stringIcSt11char_traitsIcESaIcEEES4_St4hashISB_ESt8equal_toISB_ESaISt4pairIKSB_S4_EEEE6getKeyERKSG_IS4_SK_E(ptr noundef nonnull align 8 dereferenceable(64) %51)
  %53 = getelementptr inbounds nuw %"class.Luau::detail::DenseHashTable.32", ptr %11, i32 0, i32 3
  %54 = call noundef zeroext i1 @_ZNKSt8equal_toIPKN4Luau3DefEEclERKS3_S6_(ptr noundef nonnull align 1 dereferenceable(1) %50, ptr noundef nonnull align 8 dereferenceable(8) %52, ptr noundef nonnull align 8 dereferenceable(8) %53)
  br i1 %54, label %55, label %56

55:                                               ; preds = %49
  store ptr null, ptr %3, align 8
  store i32 1, ptr %9, align 4
  br label %63

56:                                               ; preds = %49
  %57 = load i64, ptr %7, align 8, !tbaa !56
  %58 = load i64, ptr %8, align 8, !tbaa !56
  %59 = add i64 %57, %58
  %60 = add i64 %59, 1
  %61 = load i64, ptr %6, align 8, !tbaa !56
  %62 = and i64 %60, %61
  store i64 %62, ptr %7, align 8, !tbaa !56
  store i32 0, ptr %9, align 4
  br label %63

63:                                               ; preds = %56, %55, %47
  call void @llvm.lifetime.end.p0(i64 8, ptr %10) #17
  %64 = load i32, ptr %9, align 4
  switch i32 %64, label %69 [
    i32 0, label %65
  ]

65:                                               ; preds = %63
  br label %66

66:                                               ; preds = %65
  %67 = load i64, ptr %8, align 8, !tbaa !56
  %68 = add i64 %67, 1
  store i64 %68, ptr %8, align 8, !tbaa !56
  br label %32, !llvm.loop !863

69:                                               ; preds = %63, %36
  call void @llvm.lifetime.end.p0(i64 8, ptr %8) #17
  %70 = load i32, ptr %9, align 4
  switch i32 %70, label %72 [
    i32 2, label %71
  ]

71:                                               ; preds = %69
  store ptr null, ptr %3, align 8
  store i32 1, ptr %9, align 4
  br label %72

72:                                               ; preds = %71, %69
  call void @llvm.lifetime.end.p0(i64 8, ptr %7) #17
  call void @llvm.lifetime.end.p0(i64 8, ptr %6) #17
  br label %73

73:                                               ; preds = %72, %21, %15
  %74 = load ptr, ptr %3, align 8
  ret ptr %74
}

; Function Attrs: mustprogress uwtable
define linkonce_odr dso_local noundef ptr @_ZNK4Luau12DenseHashMapIPKNS_3DefESt13unordered_mapINSt7__cxx1112basic_stringIcSt11char_traitsIcESaIcEEES3_St4hashISA_ESt8equal_toISA_ESaISt4pairIKSA_S3_EEENS_16DenseHashPointerESD_IS3_EE4findERKS3_(ptr noundef nonnull align 8 dereferenceable(40) %0, ptr noundef nonnull align 8 dereferenceable(8) %1) #2 comdat align 2 {
  %3 = alloca ptr, align 8
  %4 = alloca ptr, align 8
  %5 = alloca ptr, align 8
  store ptr %0, ptr %3, align 8, !tbaa !119
  store ptr %1, ptr %4, align 8, !tbaa !67
  %6 = load ptr, ptr %3, align 8
  call void @llvm.lifetime.start.p0(i64 8, ptr %5) #17
  %7 = getelementptr inbounds nuw %"class.Luau::DenseHashMap.31", ptr %6, i32 0, i32 0
  %8 = load ptr, ptr %4, align 8, !tbaa !67
  %9 = call noundef ptr @_ZNK4Luau6detail14DenseHashTableIPKNS_3DefESt4pairIS4_St13unordered_mapINSt7__cxx1112basic_stringIcSt11char_traitsIcESaIcEEES4_St4hashISC_ESt8equal_toISC_ESaIS5_IKSC_S4_EEEES5_IKS4_SK_ENS0_16ItemInterfaceMapIS4_SK_EENS_16DenseHashPointerESF_IS4_EE4findERSM_(ptr noundef nonnull align 8 dereferenceable(34) %7, ptr noundef nonnull align 8 dereferenceable(8) %8)
  store ptr %9, ptr %5, align 8, !tbaa !121
  %10 = load ptr, ptr %5, align 8, !tbaa !121
  %11 = icmp ne ptr %10, null
  br i1 %11, label %12, label %15

12:                                               ; preds = %2
  %13 = load ptr, ptr %5, align 8, !tbaa !121
  %14 = getelementptr inbounds nuw %"struct.std::pair.41", ptr %13, i32 0, i32 1
  br label %16

15:                                               ; preds = %2
  br label %16

16:                                               ; preds = %15, %12
  %17 = phi ptr [ %14, %12 ], [ null, %15 ]
  call void @llvm.lifetime.end.p0(i64 8, ptr %5) #17
  ret ptr %17
}

; Function Attrs: mustprogress nounwind uwtable
define linkonce_odr dso_local noundef ptr @_ZNK4Luau7NotNullIKNS_3DefEEcvPS2_Ev(ptr noundef nonnull align 8 dereferenceable(8) %0) #4 comdat align 2 {
  %2 = alloca ptr, align 8
  store ptr %0, ptr %2, align 8, !tbaa !71
  %3 = load ptr, ptr %2, align 8
  %4 = getelementptr inbounds nuw %"struct.Luau::NotNull", ptr %3, i32 0, i32 0
  %5 = load ptr, ptr %4, align 8, !tbaa !73
  ret ptr %5
}

; Function Attrs: mustprogress uwtable
define dso_local noundef zeroext i1 @_ZNK4Luau8DfgScope19canUpdateDefinitionENS_7NotNullIKNS_3DefEEERKNSt7__cxx1112basic_stringIcSt11char_traitsIcESaIcEEE(ptr noundef nonnull align 8 dereferenceable(104) %0, ptr %1, ptr noundef nonnull align 8 dereferenceable(32) %2) #2 align 2 {
  %4 = alloca i1, align 1
  %5 = alloca %"struct.Luau::NotNull", align 8
  %6 = alloca ptr, align 8
  %7 = alloca ptr, align 8
  %8 = alloca ptr, align 8
  %9 = alloca i32, align 4
  %10 = alloca ptr, align 8
  %11 = alloca ptr, align 8
  %12 = getelementptr inbounds nuw %"struct.Luau::NotNull", ptr %5, i32 0, i32 0
  store ptr %1, ptr %12, align 8
  store ptr %0, ptr %6, align 8, !tbaa !87
  store ptr %2, ptr %7, align 8, !tbaa !38
  %13 = load ptr, ptr %6, align 8
  call void @llvm.lifetime.start.p0(i64 8, ptr %8) #17
  store ptr %13, ptr %8, align 8, !tbaa !87
  br label %14

14:                                               ; preds = %37, %3
  %15 = load ptr, ptr %8, align 8, !tbaa !87
  %16 = icmp ne ptr %15, null
  br i1 %16, label %18, label %17

17:                                               ; preds = %14
  store i32 2, ptr %9, align 4
  br label %41

18:                                               ; preds = %14
  call void @llvm.lifetime.start.p0(i64 8, ptr %10) #17
  %19 = load ptr, ptr %8, align 8, !tbaa !87
  %20 = getelementptr inbounds nuw %"struct.Luau::DfgScope", ptr %19, i32 0, i32 4
  call void @llvm.lifetime.start.p0(i64 8, ptr %11) #17
  %21 = call noundef ptr @_ZNK4Luau7NotNullIKNS_3DefEEcvPS2_Ev(ptr noundef nonnull align 8 dereferenceable(8) %5) #17
  store ptr %21, ptr %11, align 8, !tbaa !23
  %22 = call noundef ptr @_ZNK4Luau12DenseHashMapIPKNS_3DefESt13unordered_mapINSt7__cxx1112basic_stringIcSt11char_traitsIcESaIcEEES3_St4hashISA_ESt8equal_toISA_ESaISt4pairIKSA_S3_EEENS_16DenseHashPointerESD_IS3_EE4findERKS3_(ptr noundef nonnull align 8 dereferenceable(40) %20, ptr noundef nonnull align 8 dereferenceable(8) %11)
  call void @llvm.lifetime.end.p0(i64 8, ptr %11) #17
  store ptr %22, ptr %10, align 8, !tbaa !112
  %23 = load ptr, ptr %10, align 8, !tbaa !112
  %24 = icmp ne ptr %23, null
  br i1 %24, label %25, label %26

25:                                               ; preds = %18
  store i1 true, ptr %4, align 1
  store i32 1, ptr %9, align 4
  br label %34

26:                                               ; preds = %18
  %27 = load ptr, ptr %8, align 8, !tbaa !87
  %28 = getelementptr inbounds nuw %"struct.Luau::DfgScope", ptr %27, i32 0, i32 1
  %29 = load i32, ptr %28, align 8, !tbaa !151
  %30 = icmp eq i32 %29, 1
  br i1 %30, label %31, label %32

31:                                               ; preds = %26
  store i1 false, ptr %4, align 1
  store i32 1, ptr %9, align 4
  br label %34

32:                                               ; preds = %26
  br label %33

33:                                               ; preds = %32
  store i32 0, ptr %9, align 4
  br label %34

34:                                               ; preds = %33, %31, %25
  call void @llvm.lifetime.end.p0(i64 8, ptr %10) #17
  %35 = load i32, ptr %9, align 4
  switch i32 %35, label %41 [
    i32 0, label %36
  ]

36:                                               ; preds = %34
  br label %37

37:                                               ; preds = %36
  %38 = load ptr, ptr %8, align 8, !tbaa !87
  %39 = getelementptr inbounds nuw %"struct.Luau::DfgScope", ptr %38, i32 0, i32 0
  %40 = load ptr, ptr %39, align 8, !tbaa !89
  store ptr %40, ptr %8, align 8, !tbaa !87
  br label %14, !llvm.loop !153

41:                                               ; preds = %34, %17
  call void @llvm.lifetime.end.p0(i64 8, ptr %8) #17
  %42 = load i32, ptr %9, align 4
  switch i32 %42, label %46 [
    i32 2, label %43
    i32 1, label %44
  ]

43:                                               ; preds = %41
  store i1 true, ptr %4, align 1
  br label %44

44:                                               ; preds = %43, %41
  %45 = load i1, ptr %4, align 1
  ret i1 %45

46:                                               ; preds = %41
  unreachable
}