; Function Attrs: mustprogress nofree norecurse nosync nounwind willreturn memory(read, inaccessiblemem: none) uwtable
define dso_local noundef zeroext i1 @_ZNK4Luau8DfgScope19canUpdateDefinitionENS_7NotNullIKNS_3DefEEERKNSt7__cxx1112basic_stringIcSt11char_traitsIcESaIcEEE(ptr noundef nonnull readonly align 8 captures(none) dereferenceable(104) %0, ptr %1, ptr noundef nonnull readnone align 8 captures(none) dereferenceable(32) %2) local_unnamed_addr #6 align 2 {
  %4 = ptrtoint ptr %1 to i64
  %5 = lshr i64 %4, 4
  %6 = lshr i64 %4, 9
  %7 = xor i64 %5, %6
  br label %8

8:                                                ; preds = %3, %33
  %.01017 = phi ptr [ %0, %3 ], [ %34, %33 ]
  %9 = getelementptr inbounds nuw i8, ptr %.01017, i64 64
  %10 = getelementptr inbounds nuw i8, ptr %.01017, i64 80
  %11 = load i64, ptr %10, align 8, !tbaa !96
  %12 = icmp eq i64 %11, 0
  br i1 %12, label %.loopexit, label %13

13:                                               ; preds = %8
  %14 = getelementptr inbounds nuw i8, ptr %.01017, i64 88
  %15 = load ptr, ptr %14, align 8, !tbaa !20
  %16 = icmp eq ptr %1, %15
  br i1 %16, label %.loopexit, label %17

17:                                               ; preds = %13
  %18 = getelementptr inbounds nuw i8, ptr %.01017, i64 72
  %19 = load i64, ptr %18, align 8, !tbaa !97
  %20 = add i64 %19, -1
  %21 = load ptr, ptr %9, align 8, !tbaa !98
  br label %22

22:                                               ; preds = %28, %17
  %.pn.i.i = phi i64 [ %7, %17 ], [ %30, %28 ]
  %.02028.i.i = phi i64 [ 0, %17 ], [ %29, %28 ]
  %.02129.i.i = and i64 %.pn.i.i, %20
  %23 = getelementptr inbounds nuw %"struct.std::pair.41", ptr %21, i64 %.02129.i.i
  %24 = load ptr, ptr %23, align 8, !tbaa !20
  %25 = icmp eq ptr %24, %1
  br i1 %25, label %.thread, label %26

26:                                               ; preds = %22
  %27 = icmp eq ptr %24, %15
  br i1 %27, label %.loopexit, label %28

28:                                               ; preds = %26
  %29 = add i64 %.02028.i.i, 1
  %30 = add i64 %29, %.02129.i.i
  %.not.i.i = icmp ugt i64 %29, %20
  br i1 %.not.i.i, label %.loopexit, label %22, !llvm.loop !99

.loopexit:                                        ; preds = %26, %28, %13, %8
  %31 = getelementptr inbounds nuw i8, ptr %.01017, i64 8
  %32 = load i32, ptr %31, align 8, !tbaa !141
  %.not20.not.not = icmp ne i32 %32, 1
  br i1 %.not20.not.not, label %33, label %.thread

33:                                               ; preds = %.loopexit
  %34 = load ptr, ptr %.01017, align 8, !tbaa !80
  %.not = icmp eq ptr %34, null
  br i1 %.not, label %.thread, label %8, !llvm.loop !143

.thread:                                          ; preds = %33, %.loopexit, %22
  %spec.select = phi i1 [ true, %22 ], [ %.not20.not.not, %.loopexit ], [ %.not20.not.not, %33 ]
  ret i1 %spec.select
}